target datalayout = "e-m:e-p270:32:32-p271:32:32-p272:64:64-i64:64-i128:128-f80:128-n8:16:32:64-S128"
target triple = "x86_64-pc-linux-gnu"

%struct.PutBitContext = type { i32, i32, ptr, ptr, ptr }

@.str.10 = private unnamed_addr constant [43 x i8] c"Internal error, put_bits buffer too small\0A\00", align 1

; Function Attrs: alwaysinline nounwind willreturn memory(none) uwtable
define internal i32 @av_bswap32(i32 noundef %0) #6 {
  %2 = alloca i32, align 4
  store i32 %0, ptr %2, align 4, !tbaa !22
  %3 = load i32, ptr %2, align 4, !tbaa !22
  %4 = shl i32 %3, 8
  %5 = and i32 %4, 65280
  %6 = load i32, ptr %2, align 4, !tbaa !22
  %7 = lshr i32 %6, 8
  %8 = and i32 %7, 255
  %9 = or i32 %5, %8
  %10 = shl i32 %9, 16
  %11 = load i32, ptr %2, align 4, !tbaa !22
  %12 = lshr i32 %11, 16
  %13 = shl i32 %12, 8
  %14 = and i32 %13, 65280
  %15 = load i32, ptr %2, align 4, !tbaa !22
  %16 = lshr i32 %15, 16
  %17 = lshr i32 %16, 8
  %18 = and i32 %17, 255
  %19 = or i32 %14, %18
  %20 = or i32 %10, %19
  ret i32 %20
}

; Function Attrs: inlinehint nounwind uwtable
define internal void @put_bits_no_assert(ptr noundef %0, i32 noundef %1, i32 noundef %2) #3 {
  %4 = alloca ptr, align 8
  %5 = alloca i32, align 4
  %6 = alloca i32, align 4
  %7 = alloca i32, align 4
  %8 = alloca i32, align 4
  store ptr %0, ptr %4, align 8, !tbaa !42
  store i32 %1, ptr %5, align 4, !tbaa !22
  store i32 %2, ptr %6, align 4, !tbaa !22
  call void @llvm.lifetime.start.p0(i64 4, ptr %7) #8
  call void @llvm.lifetime.start.p0(i64 4, ptr %8) #8
  %9 = load ptr, ptr %4, align 8, !tbaa !42
  %10 = getelementptr inbounds nuw %struct.PutBitContext, ptr %9, i32 0, i32 0
  %11 = load i32, ptr %10, align 8, !tbaa !77
  store i32 %11, ptr %7, align 4, !tbaa !22
  %12 = load ptr, ptr %4, align 8, !tbaa !42
  %13 = getelementptr inbounds nuw %struct.PutBitContext, ptr %12, i32 0, i32 1
  %14 = load i32, ptr %13, align 4, !tbaa !76
  store i32 %14, ptr %8, align 4, !tbaa !22
  %15 = load i32, ptr %5, align 4, !tbaa !22
  %16 = load i32, ptr %8, align 4, !tbaa !22
  %17 = icmp slt i32 %15, %16
  br i1 %17, label %18, label %27

18:                                               ; preds = %3
  %19 = load i32, ptr %7, align 4, !tbaa !22
  %20 = load i32, ptr %5, align 4, !tbaa !22
  %21 = shl i32 %19, %20
  %22 = load i32, ptr %6, align 4, !tbaa !22
  %23 = or i32 %21, %22
  store i32 %23, ptr %7, align 4, !tbaa !22
  %24 = load i32, ptr %5, align 4, !tbaa !22
  %25 = load i32, ptr %8, align 4, !tbaa !22
  %26 = sub nsw i32 %25, %24
  store i32 %26, ptr %8, align 4, !tbaa !22
  br label %65

27:                                               ; preds = %3
  %28 = load i32, ptr %8, align 4, !tbaa !22
  %29 = load i32, ptr %7, align 4, !tbaa !22
  %30 = shl i32 %29, %28
  store i32 %30, ptr %7, align 4, !tbaa !22
  %31 = load i32, ptr %6, align 4, !tbaa !22
  %32 = load i32, ptr %5, align 4, !tbaa !22
  %33 = load i32, ptr %8, align 4, !tbaa !22
  %34 = sub nsw i32 %32, %33
  %35 = lshr i32 %31, %34
  %36 = load i32, ptr %7, align 4, !tbaa !22
  %37 = or i32 %36, %35
  store i32 %37, ptr %7, align 4, !tbaa !22
  %38 = load ptr, ptr %4, align 8, !tbaa !42
  %39 = getelementptr inbounds nuw %struct.PutBitContext, ptr %38, i32 0, i32 4
  %40 = load ptr, ptr %39, align 8, !tbaa !78
  %41 = load ptr, ptr %4, align 8, !tbaa !42
  %42 = getelementptr inbounds nuw %struct.PutBitContext, ptr %41, i32 0, i32 3
  %43 = load ptr, ptr %42, align 8, !tbaa !75
  %44 = ptrtoint ptr %40 to i64
  %45 = ptrtoint ptr %43 to i64
  %46 = sub i64 %44, %45
  %47 = icmp uge i64 %46, 4
  br i1 %47, label %48, label %58

48:                                               ; preds = %27
  %49 = load i32, ptr %7, align 4, !tbaa !22
  %50 = call i32 @av_bswap32(i32 noundef %49) #11
  %51 = load ptr, ptr %4, align 8, !tbaa !42
  %52 = getelementptr inbounds nuw %struct.PutBitContext, ptr %51, i32 0, i32 3
  %53 = load ptr, ptr %52, align 8, !tbaa !75
  store i32 %50, ptr %53, align 1, !tbaa !56
  %54 = load ptr, ptr %4, align 8, !tbaa !42
  %55 = getelementptr inbounds nuw %struct.PutBitContext, ptr %54, i32 0, i32 3
  %56 = load ptr, ptr %55, align 8, !tbaa !75
  %57 = getelementptr inbounds nuw i8, ptr %56, i64 4
  store ptr %57, ptr %55, align 8, !tbaa !75
  br label %59

58:                                               ; preds = %27
  call void (ptr, i32, ptr, ...) @av_log(ptr noundef null, i32 noundef 16, ptr noundef @.str.10)
  br label %59

59:                                               ; preds = %58, %48
  %60 = load i32, ptr %5, align 4, !tbaa !22
  %61 = sub nsw i32 32, %60
  %62 = load i32, ptr %8, align 4, !tbaa !22
  %63 = add nsw i32 %62, %61
  store i32 %63, ptr %8, align 4, !tbaa !22
  %64 = load i32, ptr %6, align 4, !tbaa !22
  store i32 %64, ptr %7, align 4, !tbaa !22
  br label %65

65:                                               ; preds = %59, %18
  %66 = load i32, ptr %7, align 4, !tbaa !22
  %67 = load ptr, ptr %4, align 8, !tbaa !42
  %68 = getelementptr inbounds nuw %struct.PutBitContext, ptr %67, i32 0, i32 0
  store i32 %66, ptr %68, align 8, !tbaa !77
  %69 = load i32, ptr %8, align 4, !tbaa !22
  %70 = load ptr, ptr %4, align 8, !tbaa !42
  %71 = getelementptr inbounds nuw %struct.PutBitContext, ptr %70, i32 0, i32 1
  store i32 %69, ptr %71, align 4, !tbaa !76
  call void @llvm.lifetime.end.p0(i64 4, ptr %8) #8
  call void @llvm.lifetime.end.p0(i64 4, ptr %7) #8
  ret void
}

; Function Attrs: inlinehint nounwind uwtable
define internal void @put_bits(ptr noundef %0, i32 noundef %1, i32 noundef %2) #3 {
  %4 = alloca ptr, align 8
  %5 = alloca i32, align 4
  %6 = alloca i32, align 4
  store ptr %0, ptr %4, align 8, !tbaa !42
  store i32 %1, ptr %5, align 4, !tbaa !22
  store i32 %2, ptr %6, align 4, !tbaa !22
  %7 = load ptr, ptr %4, align 8, !tbaa !42
  %8 = load i32, ptr %5, align 4, !tbaa !22
  %9 = load i32, ptr %6, align 4, !tbaa !22
  call void @put_bits_no_assert(ptr noundef %7, i32 noundef %8, i32 noundef %9)
  ret void
}

; Function Attrs: nounwind uwtable
define internal i32 @put_huffman_table(ptr noundef %0, i32 noundef %1, i32 noundef %2, ptr noundef %3, ptr noundef %4) #0 {
  %6 = alloca ptr, align 8
  %7 = alloca i32, align 4
  %8 = alloca i32, align 4
  %9 = alloca ptr, align 8
  %10 = alloca ptr, align 8
  %11 = alloca i32, align 4
  %12 = alloca i32, align 4
  %13 = alloca i32, align 4
  store ptr %0, ptr %6, align 8, !tbaa !42
  store i32 %1, ptr %7, align 4, !tbaa !22
  store i32 %2, ptr %8, align 4, !tbaa !22
  store ptr %3, ptr %9, align 8, !tbaa !46
  store ptr %4, ptr %10, align 8, !tbaa !46
  call void @llvm.lifetime.start.p0(i64 4, ptr %11) #8
  store i32 0, ptr %11, align 4, !tbaa !22
  %14 = load ptr, ptr %6, align 8, !tbaa !42
  %15 = load i32, ptr %7, align 4, !tbaa !22
  call void @put_bits(ptr noundef %14, i32 noundef 4, i32 noundef %15)
  %16 = load ptr, ptr %6, align 8, !tbaa !42
  %17 = load i32, ptr %8, align 4, !tbaa !22
  call void @put_bits(ptr noundef %16, i32 noundef 4, i32 noundef %17)
  call void @llvm.lifetime.start.p0(i64 4, ptr %12) #8
  store i32 1, ptr %12, align 4, !tbaa !22
  br label %18

18:                                               ; preds = %38, %5
  %19 = load i32, ptr %12, align 4, !tbaa !22
  %20 = icmp sle i32 %19, 16
  br i1 %20, label %22, label %21

21:                                               ; preds = %18
  call void @llvm.lifetime.end.p0(i64 4, ptr %12) #8
  br label %41

22:                                               ; preds = %18
  %23 = load ptr, ptr %9, align 8, !tbaa !46
  %24 = load i32, ptr %12, align 4, !tbaa !22
  %25 = sext i32 %24 to i64
  %26 = getelementptr inbounds i8, ptr %23, i64 %25
  %27 = load i8, ptr %26, align 1, !tbaa !56
  %28 = zext i8 %27 to i32
  %29 = load i32, ptr %11, align 4, !tbaa !22
  %30 = add nsw i32 %29, %28
  store i32 %30, ptr %11, align 4, !tbaa !22
  %31 = load ptr, ptr %6, align 8, !tbaa !42
  %32 = load ptr, ptr %9, align 8, !tbaa !46
  %33 = load i32, ptr %12, align 4, !tbaa !22
  %34 = sext i32 %33 to i64
  %35 = getelementptr inbounds i8, ptr %32, i64 %34
  %36 = load i8, ptr %35, align 1, !tbaa !56
  %37 = zext i8 %36 to i32
  call void @put_bits(ptr noundef %31, i32 noundef 8, i32 noundef %37)
  br label %38

38:                                               ; preds = %22
  %39 = load i32, ptr %12, align 4, !tbaa !22
  %40 = add nsw i32 %39, 1
  store i32 %40, ptr %12, align 4, !tbaa !22
  br label %18, !llvm.loop !83

41:                                               ; preds = %21
  call void @llvm.lifetime.start.p0(i64 4, ptr %13) #8
  store i32 0, ptr %13, align 4, !tbaa !22
  br label %42

42:                                               ; preds = %55, %41
  %43 = load i32, ptr %13, align 4, !tbaa !22
  %44 = load i32, ptr %11, align 4, !tbaa !22
  %45 = icmp slt i32 %43, %44
  br i1 %45, label %47, label %46

46:                                               ; preds = %42
  call void @llvm.lifetime.end.p0(i64 4, ptr %13) #8
  br label %58

47:                                               ; preds = %42
  %48 = load ptr, ptr %6, align 8, !tbaa !42
  %49 = load ptr, ptr %10, align 8, !tbaa !46
  %50 = load i32, ptr %13, align 4, !tbaa !22
  %51 = sext i32 %50 to i64
  %52 = getelementptr inbounds i8, ptr %49, i64 %51
  %53 = load i8, ptr %52, align 1, !tbaa !56
  %54 = zext i8 %53 to i32
  call void @put_bits(ptr noundef %48, i32 noundef 8, i32 noundef %54)
  br label %55

55:                                               ; preds = %47
  %56 = load i32, ptr %13, align 4, !tbaa !22
  %57 = add nsw i32 %56, 1
  store i32 %57, ptr %13, align 4, !tbaa !22
  br label %42, !llvm.loop !84

58:                                               ; preds = %46
  %59 = load i32, ptr %11, align 4, !tbaa !22
  %60 = add nsw i32 %59, 17
  call void @llvm.lifetime.end.p0(i64 4, ptr %11) #8
  ret i32 %60
}