; Function Attrs: nounwind uwtable
define internal fastcc range(i32 -2147483631, -2147483648) i32 @put_huffman_table(ptr noundef captures(none) %0, i32 noundef range(i32 0, 2) %1, i32 noundef range(i32 0, 2) %2, ptr noundef readonly captures(none) %3, ptr noundef readonly captures(none) %4) unnamed_addr #0 {
  %6 = load i32, ptr %0, align 8, !tbaa !33
  %7 = getelementptr inbounds nuw i8, ptr %0, i64 4
  %8 = load i32, ptr %7, align 4, !tbaa !35
  %9 = icmp sgt i32 %8, 4
  br i1 %9, label %10, label %13

10:                                               ; preds = %5
  %11 = shl i32 %6, 4
  %12 = or disjoint i32 %11, %1
  br label %put_bits.exit

13:                                               ; preds = %5
  %14 = getelementptr inbounds nuw i8, ptr %0, i64 24
  %15 = load ptr, ptr %14, align 8, !tbaa !36
  %16 = getelementptr inbounds nuw i8, ptr %0, i64 16
  %17 = load ptr, ptr %16, align 8, !tbaa !37
  %18 = ptrtoint ptr %15 to i64
  %19 = ptrtoint ptr %17 to i64
  %20 = sub i64 %18, %19
  %21 = icmp ugt i64 %20, 3
  br i1 %21, label %22, label %30

22:                                               ; preds = %13
  %23 = shl i32 %6, %8
  %24 = sub nsw i32 4, %8
  %25 = lshr i32 %1, %24
  %26 = or i32 %25, %23
  %27 = tail call i32 @llvm.bswap.i32(i32 %26)
  store i32 %27, ptr %17, align 1, !tbaa !38
  %28 = load ptr, ptr %16, align 8, !tbaa !37
  %29 = getelementptr inbounds nuw i8, ptr %28, i64 4
  store ptr %29, ptr %16, align 8, !tbaa !37
  br label %put_bits.exit

30:                                               ; preds = %13
  tail call void (ptr, i32, ptr, ...) @av_log(ptr noundef null, i32 noundef 16, ptr noundef nonnull @.str.10) #8
  br label %put_bits.exit

put_bits.exit:                                    ; preds = %22, %30, %10
  %.sink = phi i32 [ -4, %10 ], [ 28, %30 ], [ 28, %22 ]
  %.026.i.i = phi i32 [ %12, %10 ], [ %1, %30 ], [ %1, %22 ]
  %31 = add nsw i32 %8, %.sink
  store i32 %.026.i.i, ptr %0, align 8, !tbaa !33
  store i32 %31, ptr %7, align 4, !tbaa !35
  %32 = icmp sgt i32 %31, 4
  br i1 %32, label %33, label %36

33:                                               ; preds = %put_bits.exit
  %34 = shl i32 %.026.i.i, 4
  %35 = or disjoint i32 %34, %2
  br label %put_bits.exit23

36:                                               ; preds = %put_bits.exit
  %37 = getelementptr inbounds nuw i8, ptr %0, i64 24
  %38 = load ptr, ptr %37, align 8, !tbaa !36
  %39 = getelementptr inbounds nuw i8, ptr %0, i64 16
  %40 = load ptr, ptr %39, align 8, !tbaa !37
  %41 = ptrtoint ptr %38 to i64
  %42 = ptrtoint ptr %40 to i64
  %43 = sub i64 %41, %42
  %44 = icmp ugt i64 %43, 3
  br i1 %44, label %45, label %53

45:                                               ; preds = %36
  %46 = shl i32 %.026.i.i, %31
  %47 = sub nsw i32 4, %31
  %48 = lshr i32 %2, %47
  %49 = or i32 %48, %46
  %50 = tail call i32 @llvm.bswap.i32(i32 %49)
  store i32 %50, ptr %40, align 1, !tbaa !38
  %51 = load ptr, ptr %39, align 8, !tbaa !37
  %52 = getelementptr inbounds nuw i8, ptr %51, i64 4
  store ptr %52, ptr %39, align 8, !tbaa !37
  br label %put_bits.exit23

53:                                               ; preds = %36
  tail call void (ptr, i32, ptr, ...) @av_log(ptr noundef null, i32 noundef 16, ptr noundef nonnull @.str.10) #8
  br label %put_bits.exit23

put_bits.exit23:                                  ; preds = %45, %53, %33
  %.sink40 = phi i32 [ -4, %33 ], [ 28, %53 ], [ 28, %45 ]
  %.026.i.i21 = phi i32 [ %35, %33 ], [ %2, %53 ], [ %2, %45 ]
  %54 = add nsw i32 %31, %.sink40
  store i32 %.026.i.i21, ptr %0, align 8, !tbaa !33
  store i32 %54, ptr %7, align 4, !tbaa !35
  %55 = getelementptr inbounds nuw i8, ptr %0, i64 24
  %56 = getelementptr inbounds nuw i8, ptr %0, i64 16
  br label %57

.preheader:                                       ; preds = %put_bits.exit27
  %.not = icmp eq i32 %63, 0
  br i1 %.not, label %._crit_edge, label %.lr.ph

.lr.ph:                                           ; preds = %.preheader
  %wide.trip.count = zext nneg i32 %63 to i64
  br label %86

57:                                               ; preds = %put_bits.exit23, %put_bits.exit27
  %58 = phi i32 [ %54, %put_bits.exit23 ], [ %84, %put_bits.exit27 ]
  %59 = phi i32 [ %.026.i.i21, %put_bits.exit23 ], [ %.026.i.i25, %put_bits.exit27 ]
  %indvars.iv = phi i64 [ 1, %put_bits.exit23 ], [ %indvars.iv.next, %put_bits.exit27 ]
  %.01932 = phi i32 [ 0, %put_bits.exit23 ], [ %63, %put_bits.exit27 ]
  %60 = getelementptr inbounds nuw i8, ptr %3, i64 %indvars.iv
  %61 = load i8, ptr %60, align 1, !tbaa !38
  %62 = zext i8 %61 to i32
  %63 = add nuw nsw i32 %.01932, %62
  %64 = icmp sgt i32 %58, 8
  br i1 %64, label %65, label %68

65:                                               ; preds = %57
  %66 = shl i32 %59, 8
  %67 = or disjoint i32 %66, %62
  br label %put_bits.exit27

68:                                               ; preds = %57
  %69 = load ptr, ptr %55, align 8, !tbaa !36
  %70 = load ptr, ptr %56, align 8, !tbaa !37
  %71 = ptrtoint ptr %69 to i64
  %72 = ptrtoint ptr %70 to i64
  %73 = sub i64 %71, %72
  %74 = icmp ugt i64 %73, 3
  br i1 %74, label %75, label %83

75:                                               ; preds = %68
  %76 = shl i32 %59, %58
  %77 = sub nsw i32 8, %58
  %78 = lshr i32 %62, %77
  %79 = or i32 %78, %76
  %80 = tail call i32 @llvm.bswap.i32(i32 %79)
  store i32 %80, ptr %70, align 1, !tbaa !38
  %81 = load ptr, ptr %56, align 8, !tbaa !37
  %82 = getelementptr inbounds nuw i8, ptr %81, i64 4
  store ptr %82, ptr %56, align 8, !tbaa !37
  br label %put_bits.exit27

83:                                               ; preds = %68
  tail call void (ptr, i32, ptr, ...) @av_log(ptr noundef null, i32 noundef 16, ptr noundef nonnull @.str.10) #8
  br label %put_bits.exit27

put_bits.exit27:                                  ; preds = %75, %83, %65
  %.sink41 = phi i32 [ -8, %65 ], [ 24, %83 ], [ 24, %75 ]
  %.026.i.i25 = phi i32 [ %67, %65 ], [ %62, %83 ], [ %62, %75 ]
  %84 = add nsw i32 %58, %.sink41
  store i32 %.026.i.i25, ptr %0, align 8, !tbaa !33
  store i32 %84, ptr %7, align 4, !tbaa !35
  %indvars.iv.next = add nuw nsw i64 %indvars.iv, 1
  %exitcond.not = icmp eq i64 %indvars.iv.next, 17
  br i1 %exitcond.not, label %.preheader, label %57, !llvm.loop !67

._crit_edge:                                      ; preds = %put_bits.exit31, %.preheader
  %85 = add nuw nsw i32 %63, 17
  ret i32 %85

86:                                               ; preds = %.lr.ph, %put_bits.exit31
  %87 = phi i32 [ %84, %.lr.ph ], [ %112, %put_bits.exit31 ]
  %88 = phi i32 [ %.026.i.i25, %.lr.ph ], [ %.026.i.i29, %put_bits.exit31 ]
  %indvars.iv36 = phi i64 [ 0, %.lr.ph ], [ %indvars.iv.next37, %put_bits.exit31 ]
  %89 = getelementptr inbounds nuw i8, ptr %4, i64 %indvars.iv36
  %90 = load i8, ptr %89, align 1, !tbaa !38
  %91 = zext i8 %90 to i32
  %92 = icmp sgt i32 %87, 8
  br i1 %92, label %93, label %96

93:                                               ; preds = %86
  %94 = shl i32 %88, 8
  %95 = or disjoint i32 %94, %91
  br label %put_bits.exit31

96:                                               ; preds = %86
  %97 = load ptr, ptr %55, align 8, !tbaa !36
  %98 = load ptr, ptr %56, align 8, !tbaa !37
  %99 = ptrtoint ptr %97 to i64
  %100 = ptrtoint ptr %98 to i64
  %101 = sub i64 %99, %100
  %102 = icmp ugt i64 %101, 3
  br i1 %102, label %103, label %111

103:                                              ; preds = %96
  %104 = shl i32 %88, %87
  %105 = sub nsw i32 8, %87
  %106 = lshr i32 %91, %105
  %107 = or i32 %106, %104
  %108 = tail call i32 @llvm.bswap.i32(i32 %107)
  store i32 %108, ptr %98, align 1, !tbaa !38
  %109 = load ptr, ptr %56, align 8, !tbaa !37
  %110 = getelementptr inbounds nuw i8, ptr %109, i64 4
  store ptr %110, ptr %56, align 8, !tbaa !37
  br label %put_bits.exit31

111:                                              ; preds = %96
  tail call void (ptr, i32, ptr, ...) @av_log(ptr noundef null, i32 noundef 16, ptr noundef nonnull @.str.10) #8
  br label %put_bits.exit31

put_bits.exit31:                                  ; preds = %103, %111, %93
  %.sink42 = phi i32 [ -8, %93 ], [ 24, %111 ], [ 24, %103 ]
  %.026.i.i29 = phi i32 [ %95, %93 ], [ %91, %111 ], [ %91, %103 ]
  %112 = add nsw i32 %87, %.sink42
  store i32 %.026.i.i29, ptr %0, align 8, !tbaa !33
  store i32 %112, ptr %7, align 4, !tbaa !35
  %indvars.iv.next37 = add nuw nsw i64 %indvars.iv36, 1
  %exitcond39.not = icmp eq i64 %indvars.iv.next37, %wide.trip.count
  br i1 %exitcond39.not, label %._crit_edge, label %86, !llvm.loop !68
}